target datalayout = "e-m:e-p270:32:32-p271:32:32-p272:64:64-i64:64-i128:128-f80:128-n8:16:32:64-S128"
target triple = "x86_64-pc-linux-gnu"

%struct.Vec_Ptr_t_ = type { i32, i32, ptr }
%struct.Cba_Ntk_t_ = type { ptr, i32, i32, i32, i8, %struct.Vec_Int_t_, %struct.Vec_Int_t_, %struct.Vec_Int_t_, %struct.Vec_Int_t_, %struct.Vec_Str_t_, %struct.Vec_Int_t_, %struct.Vec_Int_t_, %struct.Vec_Int_t_, %struct.Vec_Int_t_, %struct.Vec_Int_t_, %struct.Vec_Int_t_, %struct.Vec_Int_t_, %struct.Vec_Int_t_, %struct.Vec_Int_t_, %struct.Vec_Int_t_, %struct.Vec_Int_t_, %struct.Vec_Int_t_, %struct.Vec_Int_t_, %struct.Vec_Int_t_, %struct.Vec_Int_t_, %struct.Vec_Int_t_, %struct.Vec_Int_t_, %struct.Vec_Int_t_, ptr, %struct.Vec_Int_t_, %struct.Vec_Int_t_ }
%struct.Vec_Str_t_ = type { i32, i32, ptr }
%struct.Vec_Int_t_ = type { i32, i32, ptr }
%struct.Cba_Man_t_ = type { ptr, ptr, ptr, ptr, ptr, ptr, %struct.Vec_Int_t_, %struct.Vec_Int_t_, %struct.Vec_Int_t_, %struct.Vec_Int_t_, [90 x ptr], [90 x i32], [90 x i32], i32, %struct.Vec_Ptr_t_, i32, %struct.Vec_Str_t_, %struct.Vec_Str_t_, ptr }

; Function Attrs: nounwind uwtable
define internal i32 @Vec_PtrSize(ptr noundef %0) #0 {
  %2 = alloca ptr, align 8
  store ptr %0, ptr %2, align 8
  %3 = load ptr, ptr %2, align 8
  %4 = getelementptr inbounds %struct.Vec_Ptr_t_, ptr %3, i32 0, i32 1
  %5 = load i32, ptr %4, align 4
  ret i32 %5
}

; Function Attrs: nounwind uwtable
define internal i32 @Cba_ManNtkNum(ptr noundef %0) #0 {
  %2 = alloca ptr, align 8
  store ptr %0, ptr %2, align 8
  %3 = load ptr, ptr %2, align 8
  %4 = getelementptr inbounds %struct.Cba_Man_t_, ptr %3, i32 0, i32 14
  %5 = call i32 @Vec_PtrSize(ptr noundef %4)
  %6 = sub nsw i32 %5, 1
  ret i32 %6
}

; Function Attrs: nounwind uwtable
define internal ptr @Vec_PtrEntry(ptr noundef %0, i32 noundef %1) #0 {
  %3 = alloca ptr, align 8
  %4 = alloca i32, align 4
  store ptr %0, ptr %3, align 8
  store i32 %1, ptr %4, align 4
  %5 = load ptr, ptr %3, align 8
  %6 = getelementptr inbounds %struct.Vec_Ptr_t_, ptr %5, i32 0, i32 2
  %7 = load ptr, ptr %6, align 8
  %8 = load i32, ptr %4, align 4
  %9 = sext i32 %8 to i64
  %10 = getelementptr inbounds ptr, ptr %7, i64 %9
  %11 = load ptr, ptr %10, align 8
  ret ptr %11
}

; Function Attrs: nounwind uwtable
define internal i32 @Cba_ManNtkIsOk(ptr noundef %0, i32 noundef %1) #0 {
  %3 = alloca ptr, align 8
  %4 = alloca i32, align 4
  store ptr %0, ptr %3, align 8
  store i32 %1, ptr %4, align 4
  %5 = load i32, ptr %4, align 4
  %6 = icmp sgt i32 %5, 0
  br i1 %6, label %7, label %12

7:                                                ; preds = %2
  %8 = load i32, ptr %4, align 4
  %9 = load ptr, ptr %3, align 8
  %10 = call i32 @Cba_ManNtkNum(ptr noundef %9)
  %11 = icmp sle i32 %8, %10
  br label %12

12:                                               ; preds = %7, %2
  %13 = phi i1 [ false, %2 ], [ %11, %7 ]
  %14 = zext i1 %13 to i32
  ret i32 %14
}

; Function Attrs: nounwind uwtable
define internal ptr @Cba_ManNtk(ptr noundef %0, i32 noundef %1) #0 {
  %3 = alloca ptr, align 8
  %4 = alloca i32, align 4
  store ptr %0, ptr %3, align 8
  store i32 %1, ptr %4, align 4
  %5 = load ptr, ptr %3, align 8
  %6 = load i32, ptr %4, align 4
  %7 = call i32 @Cba_ManNtkIsOk(ptr noundef %5, i32 noundef %6)
  %8 = icmp ne i32 %7, 0
  br i1 %8, label %9, label %14

9:                                                ; preds = %2
  %10 = load ptr, ptr %3, align 8
  %11 = getelementptr inbounds %struct.Cba_Man_t_, ptr %10, i32 0, i32 14
  %12 = load i32, ptr %4, align 4
  %13 = call ptr @Vec_PtrEntry(ptr noundef %11, i32 noundef %12)
  br label %15

14:                                               ; preds = %2
  br label %15

15:                                               ; preds = %14, %9
  %16 = phi ptr [ %13, %9 ], [ null, %14 ]
  ret ptr %16
}

; Function Attrs: nounwind uwtable
define internal i32 @Vec_IntGetEntry(ptr noundef %0, i32 noundef %1) #0 {
  %3 = alloca ptr, align 8
  %4 = alloca i32, align 4
  store ptr %0, ptr %3, align 8
  store i32 %1, ptr %4, align 4
  %5 = load ptr, ptr %3, align 8
  %6 = load i32, ptr %4, align 4
  %7 = add nsw i32 %6, 1
  call void @Vec_IntFillExtra(ptr noundef %5, i32 noundef %7, i32 noundef 0)
  %8 = load ptr, ptr %3, align 8
  %9 = load i32, ptr %4, align 4
  %10 = call i32 @Vec_IntEntry(ptr noundef %8, i32 noundef %9)
  ret i32 %10
}

; Function Attrs: nounwind uwtable
define internal i32 @Vec_IntSize(ptr noundef %0) #0 {
  %2 = alloca ptr, align 8
  store ptr %0, ptr %2, align 8
  %3 = load ptr, ptr %2, align 8
  %4 = getelementptr inbounds %struct.Vec_Int_t_, ptr %3, i32 0, i32 1
  %5 = load i32, ptr %4, align 4
  ret i32 %5
}

; Function Attrs: nounwind uwtable
define internal i32 @Vec_IntEntry(ptr noundef %0, i32 noundef %1) #0 {
  %3 = alloca ptr, align 8
  %4 = alloca i32, align 4
  store ptr %0, ptr %3, align 8
  store i32 %1, ptr %4, align 4
  %5 = load ptr, ptr %3, align 8
  %6 = getelementptr inbounds %struct.Vec_Int_t_, ptr %5, i32 0, i32 2
  %7 = load ptr, ptr %6, align 8
  %8 = load i32, ptr %4, align 4
  %9 = sext i32 %8 to i64
  %10 = getelementptr inbounds i32, ptr %7, i64 %9
  %11 = load i32, ptr %10, align 4
  ret i32 %11
}

; Function Attrs: nounwind uwtable
define internal ptr @Cba_NtkNtk(ptr noundef %0, i32 noundef %1) #0 {
  %3 = alloca ptr, align 8
  %4 = alloca i32, align 4
  store ptr %0, ptr %3, align 8
  store i32 %1, ptr %4, align 4
  %5 = load ptr, ptr %3, align 8
  %6 = getelementptr inbounds %struct.Cba_Ntk_t_, ptr %5, i32 0, i32 0
  %7 = load ptr, ptr %6, align 8
  %8 = load i32, ptr %4, align 4
  %9 = call ptr @Cba_ManNtk(ptr noundef %7, i32 noundef %8)
  ret ptr %9
}

; Function Attrs: nounwind uwtable
define internal i32 @Cba_ObjFunc(ptr noundef %0, i32 noundef %1) #0 {
  %3 = alloca ptr, align 8
  %4 = alloca i32, align 4
  store ptr %0, ptr %3, align 8
  store i32 %1, ptr %4, align 4
  %5 = load ptr, ptr %3, align 8
  %6 = getelementptr inbounds %struct.Cba_Ntk_t_, ptr %5, i32 0, i32 15
  %7 = load i32, ptr %4, align 4
  %8 = call i32 @Vec_IntGetEntry(ptr noundef %6, i32 noundef %7)
  ret i32 %8
}

; Function Attrs: nounwind uwtable
define internal i32 @Cba_NtkHasObjFuncs(ptr noundef %0) #0 {
  %2 = alloca ptr, align 8
  store ptr %0, ptr %2, align 8
  %3 = load ptr, ptr %2, align 8
  %4 = getelementptr inbounds %struct.Cba_Ntk_t_, ptr %3, i32 0, i32 15
  %5 = call i32 @Vec_IntSize(ptr noundef %4)
  %6 = icmp sgt i32 %5, 0
  %7 = zext i1 %6 to i32
  ret i32 %7
}

; Function Attrs: nounwind uwtable
define internal i32 @Cba_ObjFon0(ptr noundef %0, i32 noundef %1) #0 {
  %3 = alloca ptr, align 8
  %4 = alloca i32, align 4
  store ptr %0, ptr %3, align 8
  store i32 %1, ptr %4, align 4
  %5 = load ptr, ptr %3, align 8
  %6 = getelementptr inbounds %struct.Cba_Ntk_t_, ptr %5, i32 0, i32 11
  %7 = load i32, ptr %4, align 4
  %8 = call i32 @Vec_IntEntry(ptr noundef %6, i32 noundef %7)
  ret i32 %8
}

; Function Attrs: nounwind uwtable
define internal i32 @Cba_ObjFin0(ptr noundef %0, i32 noundef %1) #0 {
  %3 = alloca ptr, align 8
  %4 = alloca i32, align 4
  store ptr %0, ptr %3, align 8
  store i32 %1, ptr %4, align 4
  %5 = load ptr, ptr %3, align 8
  %6 = getelementptr inbounds %struct.Cba_Ntk_t_, ptr %5, i32 0, i32 10
  %7 = load i32, ptr %4, align 4
  %8 = call i32 @Vec_IntEntry(ptr noundef %6, i32 noundef %7)
  ret i32 %8
}

; Function Attrs: nounwind uwtable
define internal signext i8 @Vec_StrEntry(ptr noundef %0, i32 noundef %1) #0 {
  %3 = alloca ptr, align 8
  %4 = alloca i32, align 4
  store ptr %0, ptr %3, align 8
  store i32 %1, ptr %4, align 4
  %5 = load ptr, ptr %3, align 8
  %6 = getelementptr inbounds %struct.Vec_Str_t_, ptr %5, i32 0, i32 2
  %7 = load ptr, ptr %6, align 8
  %8 = load i32, ptr %4, align 4
  %9 = sext i32 %8 to i64
  %10 = getelementptr inbounds i8, ptr %7, i64 %9
  %11 = load i8, ptr %10, align 1
  ret i8 %11
}

; Function Attrs: nounwind uwtable
define internal ptr @Cba_ObjNtk(ptr noundef %0, i32 noundef %1) #0 {
  %3 = alloca ptr, align 8
  %4 = alloca i32, align 4
  store ptr %0, ptr %3, align 8
  store i32 %1, ptr %4, align 4
  %5 = load ptr, ptr %3, align 8
  %6 = load ptr, ptr %3, align 8
  %7 = load i32, ptr %4, align 4
  %8 = call i32 @Cba_ObjNtkId(ptr noundef %6, i32 noundef %7)
  %9 = call ptr @Cba_NtkNtk(ptr noundef %5, i32 noundef %8)
  ret ptr %9
}

; Function Attrs: nounwind uwtable
define internal i32 @Cba_ObjNtkId(ptr noundef %0, i32 noundef %1) #0 {
  %3 = alloca ptr, align 8
  %4 = alloca i32, align 4
  store ptr %0, ptr %3, align 8
  store i32 %1, ptr %4, align 4
  %5 = load ptr, ptr %3, align 8
  %6 = load i32, ptr %4, align 4
  %7 = call i32 @Cba_ObjIsBoxUser(ptr noundef %5, i32 noundef %6)
  %8 = icmp ne i32 %7, 0
  br i1 %8, label %9, label %17

9:                                                ; preds = %2
  %10 = load ptr, ptr %3, align 8
  %11 = call i32 @Cba_NtkHasObjFuncs(ptr noundef %10)
  %12 = icmp ne i32 %11, 0
  br i1 %12, label %13, label %17

13:                                               ; preds = %9
  %14 = load ptr, ptr %3, align 8
  %15 = load i32, ptr %4, align 4
  %16 = call i32 @Cba_ObjFunc(ptr noundef %14, i32 noundef %15)
  br label %18

17:                                               ; preds = %9, %2
  br label %18

18:                                               ; preds = %17, %13
  %19 = phi i32 [ %16, %13 ], [ 0, %17 ]
  ret i32 %19
}

; Function Attrs: nounwind uwtable
define internal i32 @Cba_ObjIsBoxUser(ptr noundef %0, i32 noundef %1) #0 {
  %3 = alloca ptr, align 8
  %4 = alloca i32, align 4
  store ptr %0, ptr %3, align 8
  store i32 %1, ptr %4, align 4
  %5 = load ptr, ptr %3, align 8
  %6 = load i32, ptr %4, align 4
  %7 = call i32 @Cba_ObjType(ptr noundef %5, i32 noundef %6)
  %8 = icmp eq i32 %7, 3
  %9 = zext i1 %8 to i32
  ret i32 %9
}

; Function Attrs: nounwind uwtable
define internal i32 @Cba_ObjFonNum(ptr noundef %0, i32 noundef %1) #0 {
  %3 = alloca ptr, align 8
  %4 = alloca i32, align 4
  store ptr %0, ptr %3, align 8
  store i32 %1, ptr %4, align 4
  %5 = load ptr, ptr %3, align 8
  %6 = load i32, ptr %4, align 4
  %7 = add nsw i32 %6, 1
  %8 = call i32 @Cba_ObjFon0(ptr noundef %5, i32 noundef %7)
  %9 = load ptr, ptr %3, align 8
  %10 = load i32, ptr %4, align 4
  %11 = call i32 @Cba_ObjFon0(ptr noundef %9, i32 noundef %10)
  %12 = sub nsw i32 %8, %11
  ret i32 %12
}

; Function Attrs: nounwind uwtable
define internal i32 @Cba_ObjFinNum(ptr noundef %0, i32 noundef %1) #0 {
  %3 = alloca ptr, align 8
  %4 = alloca i32, align 4
  store ptr %0, ptr %3, align 8
  store i32 %1, ptr %4, align 4
  %5 = load ptr, ptr %3, align 8
  %6 = load i32, ptr %4, align 4
  %7 = add nsw i32 %6, 1
  %8 = call i32 @Cba_ObjFin0(ptr noundef %5, i32 noundef %7)
  %9 = load ptr, ptr %3, align 8
  %10 = load i32, ptr %4, align 4
  %11 = call i32 @Cba_ObjFin0(ptr noundef %9, i32 noundef %10)
  %12 = sub nsw i32 %8, %11
  ret i32 %12
}

; Function Attrs: nounwind uwtable
define internal i32 @Cba_ObjIsBoxPrim(ptr noundef %0, i32 noundef %1) #0 {
  %3 = alloca ptr, align 8
  %4 = alloca i32, align 4
  store ptr %0, ptr %3, align 8
  store i32 %1, ptr %4, align 4
  %5 = load ptr, ptr %3, align 8
  %6 = load i32, ptr %4, align 4
  %7 = call i32 @Cba_ObjType(ptr noundef %5, i32 noundef %6)
  %8 = icmp ugt i32 %7, 3
  br i1 %8, label %9, label %14

9:                                                ; preds = %2
  %10 = load ptr, ptr %3, align 8
  %11 = load i32, ptr %4, align 4
  %12 = call i32 @Cba_ObjType(ptr noundef %10, i32 noundef %11)
  %13 = icmp ult i32 %12, 90
  br label %14

14:                                               ; preds = %9, %2
  %15 = phi i1 [ false, %2 ], [ %13, %9 ]
  %16 = zext i1 %15 to i32
  ret i32 %16
}

; Function Attrs: nounwind uwtable
define internal i32 @Cba_ObjType(ptr noundef %0, i32 noundef %1) #0 {
  %3 = alloca ptr, align 8
  %4 = alloca i32, align 4
  store ptr %0, ptr %3, align 8
  store i32 %1, ptr %4, align 4
  %5 = load ptr, ptr %3, align 8
  %6 = getelementptr inbounds %struct.Cba_Ntk_t_, ptr %5, i32 0, i32 9
  %7 = load i32, ptr %4, align 4
  %8 = call signext i8 @Vec_StrEntry(ptr noundef %6, i32 noundef %7)
  %9 = zext i8 %8 to i32
  ret i32 %9
}

; Function Attrs: nounwind uwtable
define internal i32 @Vec_StrSize(ptr noundef %0) #0 {
  %2 = alloca ptr, align 8
  store ptr %0, ptr %2, align 8
  %3 = load ptr, ptr %2, align 8
  %4 = getelementptr inbounds %struct.Vec_Str_t_, ptr %3, i32 0, i32 1
  %5 = load i32, ptr %4, align 4
  ret i32 %5
}

; Function Attrs: nounwind uwtable
define internal i32 @Cba_NtkId(ptr noundef %0) #0 {
  %2 = alloca ptr, align 8
  store ptr %0, ptr %2, align 8
  %3 = load ptr, ptr %2, align 8
  %4 = getelementptr inbounds %struct.Cba_Ntk_t_, ptr %3, i32 0, i32 1
  %5 = load i32, ptr %4, align 8
  ret i32 %5
}

; Function Attrs: nounwind uwtable
define void @Cba_ManGetClpStats_rec(ptr noundef %0, ptr noundef %1, ptr noundef %2, ptr noundef %3) #0 {
  %5 = alloca ptr, align 8
  %6 = alloca ptr, align 8
  %7 = alloca ptr, align 8
  %8 = alloca ptr, align 8
  %9 = alloca i32, align 4
  %10 = alloca i32, align 4
  %11 = alloca i32, align 4
  store ptr %0, ptr %5, align 8
  store ptr %1, ptr %6, align 8
  store ptr %2, ptr %7, align 8
  store ptr %3, ptr %8, align 8
  %12 = load ptr, ptr %5, align 8
  %13 = call i32 @Cba_NtkId(ptr noundef %12)
  store i32 %13, ptr %10, align 4
  %14 = load ptr, ptr %6, align 8
  %15 = load i32, ptr %10, align 4
  %16 = sext i32 %15 to i64
  %17 = getelementptr inbounds i32, ptr %14, i64 %16
  %18 = load i32, ptr %17, align 4
  %19 = icmp sge i32 %18, 0
  br i1 %19, label %20, label %21

20:                                               ; preds = %4
  br label %142

21:                                               ; preds = %4
  %22 = load ptr, ptr %8, align 8
  %23 = load i32, ptr %10, align 4
  %24 = sext i32 %23 to i64
  %25 = getelementptr inbounds i32, ptr %22, i64 %24
  store i32 0, ptr %25, align 4
  %26 = load ptr, ptr %7, align 8
  %27 = load i32, ptr %10, align 4
  %28 = sext i32 %27 to i64
  %29 = getelementptr inbounds i32, ptr %26, i64 %28
  store i32 0, ptr %29, align 4
  %30 = load ptr, ptr %6, align 8
  %31 = load i32, ptr %10, align 4
  %32 = sext i32 %31 to i64
  %33 = getelementptr inbounds i32, ptr %30, i64 %32
  store i32 0, ptr %33, align 4
  store i32 1, ptr %9, align 4
  br label %34

34:                                               ; preds = %139, %21
  %35 = load i32, ptr %9, align 4
  %36 = load ptr, ptr %5, align 8
  %37 = getelementptr inbounds %struct.Cba_Ntk_t_, ptr %36, i32 0, i32 9
  %38 = call i32 @Vec_StrSize(ptr noundef %37)
  %39 = icmp slt i32 %35, %38
  br i1 %39, label %40, label %142

40:                                               ; preds = %34
  %41 = load ptr, ptr %5, align 8
  %42 = load i32, ptr %9, align 4
  %43 = call i32 @Cba_ObjType(ptr noundef %41, i32 noundef %42)
  %44 = icmp ne i32 %43, 0
  br i1 %44, label %46, label %45

45:                                               ; preds = %40
  br label %138

46:                                               ; preds = %40
  %47 = load ptr, ptr %5, align 8
  %48 = load i32, ptr %9, align 4
  %49 = call i32 @Cba_ObjIsBoxPrim(ptr noundef %47, i32 noundef %48)
  %50 = icmp ne i32 %49, 0
  br i1 %50, label %51, label %76

51:                                               ; preds = %46
  %52 = load ptr, ptr %6, align 8
  %53 = load i32, ptr %10, align 4
  %54 = sext i32 %53 to i64
  %55 = getelementptr inbounds i32, ptr %52, i64 %54
  %56 = load i32, ptr %55, align 4
  %57 = add nsw i32 %56, 1
  store i32 %57, ptr %55, align 4
  %58 = load ptr, ptr %5, align 8
  %59 = load i32, ptr %9, align 4
  %60 = call i32 @Cba_ObjFinNum(ptr noundef %58, i32 noundef %59)
  %61 = load ptr, ptr %7, align 8
  %62 = load i32, ptr %10, align 4
  %63 = sext i32 %62 to i64
  %64 = getelementptr inbounds i32, ptr %61, i64 %63
  %65 = load i32, ptr %64, align 4
  %66 = add nsw i32 %65, %60
  store i32 %66, ptr %64, align 4
  %67 = load ptr, ptr %5, align 8
  %68 = load i32, ptr %9, align 4
  %69 = call i32 @Cba_ObjFonNum(ptr noundef %67, i32 noundef %68)
  %70 = load ptr, ptr %8, align 8
  %71 = load i32, ptr %10, align 4
  %72 = sext i32 %71 to i64
  %73 = getelementptr inbounds i32, ptr %70, i64 %72
  %74 = load i32, ptr %73, align 4
  %75 = add nsw i32 %74, %69
  store i32 %75, ptr %73, align 4
  br label %137

76:                                               ; preds = %46
  %77 = load ptr, ptr %5, align 8
  %78 = load i32, ptr %9, align 4
  %79 = call i32 @Cba_ObjIsBoxUser(ptr noundef %77, i32 noundef %78)
  %80 = icmp ne i32 %79, 0
  br i1 %80, label %81, label %136

81:                                               ; preds = %76
  %82 = load ptr, ptr %5, align 8
  %83 = load i32, ptr %9, align 4
  %84 = call i32 @Cba_ObjNtkId(ptr noundef %82, i32 noundef %83)
  store i32 %84, ptr %11, align 4
  %85 = load ptr, ptr %5, align 8
  %86 = load i32, ptr %9, align 4
  %87 = call ptr @Cba_ObjNtk(ptr noundef %85, i32 noundef %86)
  %88 = load ptr, ptr %6, align 8
  %89 = load ptr, ptr %7, align 8
  %90 = load ptr, ptr %8, align 8
  call void @Cba_ManGetClpStats_rec(ptr noundef %87, ptr noundef %88, ptr noundef %89, ptr noundef %90)
  %91 = load ptr, ptr %6, align 8
  %92 = load i32, ptr %11, align 4
  %93 = sext i32 %92 to i64
  %94 = getelementptr inbounds i32, ptr %91, i64 %93
  %95 = load i32, ptr %94, align 4
  %96 = load ptr, ptr %5, align 8
  %97 = load i32, ptr %9, align 4
  %98 = call i32 @Cba_ObjFonNum(ptr noundef %96, i32 noundef %97)
  %99 = add nsw i32 %95, %98
  %100 = load ptr, ptr %6, align 8
  %101 = load i32, ptr %10, align 4
  %102 = sext i32 %101 to i64
  %103 = getelementptr inbounds i32, ptr %100, i64 %102
  %104 = load i32, ptr %103, align 4
  %105 = add nsw i32 %104, %99
  store i32 %105, ptr %103, align 4
  %106 = load ptr, ptr %7, align 8
  %107 = load i32, ptr %11, align 4
  %108 = sext i32 %107 to i64
  %109 = getelementptr inbounds i32, ptr %106, i64 %108
  %110 = load i32, ptr %109, align 4
  %111 = load ptr, ptr %5, align 8
  %112 = load i32, ptr %9, align 4
  %113 = call i32 @Cba_ObjFonNum(ptr noundef %111, i32 noundef %112)
  %114 = add nsw i32 %110, %113
  %115 = load ptr, ptr %7, align 8
  %116 = load i32, ptr %10, align 4
  %117 = sext i32 %116 to i64
  %118 = getelementptr inbounds i32, ptr %115, i64 %117
  %119 = load i32, ptr %118, align 4
  %120 = add nsw i32 %119, %114
  store i32 %120, ptr %118, align 4
  %121 = load ptr, ptr %8, align 8
  %122 = load i32, ptr %11, align 4
  %123 = sext i32 %122 to i64
  %124 = getelementptr inbounds i32, ptr %121, i64 %123
  %125 = load i32, ptr %124, align 4
  %126 = load ptr, ptr %5, align 8
  %127 = load i32, ptr %9, align 4
  %128 = call i32 @Cba_ObjFonNum(ptr noundef %126, i32 noundef %127)
  %129 = add nsw i32 %125, %128
  %130 = load ptr, ptr %8, align 8
  %131 = load i32, ptr %10, align 4
  %132 = sext i32 %131 to i64
  %133 = getelementptr inbounds i32, ptr %130, i64 %132
  %134 = load i32, ptr %133, align 4
  %135 = add nsw i32 %134, %129
  store i32 %135, ptr %133, align 4
  br label %136

136:                                              ; preds = %81, %76
  br label %137

137:                                              ; preds = %136, %51
  br label %138

138:                                              ; preds = %137, %45
  br label %139

139:                                              ; preds = %138
  %140 = load i32, ptr %9, align 4
  %141 = add nsw i32 %140, 1
  store i32 %141, ptr %9, align 4
  br label %34, !llvm.loop !52

142:                                              ; preds = %34, %20
  ret void
}