; Function Attrs: nounwind uwtable
define void @Cba_ManGetClpStats_rec(ptr noundef captures(none) %0, ptr noundef captures(none) %1, ptr noundef captures(none) %2, ptr noundef captures(none) %3) local_unnamed_addr #1 {
  %5 = getelementptr i8, ptr %0, i64 8
  %.val61 = load i32, ptr %5, align 8
  %6 = sext i32 %.val61 to i64
  %7 = getelementptr inbounds i32, ptr %1, i64 %6
  %8 = load i32, ptr %7, align 4
  %9 = icmp sgt i32 %8, -1
  br i1 %9, label %.loopexit, label %10

10:                                               ; preds = %4
  %11 = getelementptr inbounds i32, ptr %3, i64 %6
  store i32 0, ptr %11, align 4
  %12 = getelementptr inbounds i32, ptr %2, i64 %6
  store i32 0, ptr %12, align 4
  store i32 0, ptr %7, align 4
  %13 = getelementptr i8, ptr %0, i64 92
  %.val70 = load i32, ptr %13, align 4
  %14 = icmp sgt i32 %.val70, 1
  br i1 %14, label %.lr.ph, label %.loopexit

.lr.ph:                                           ; preds = %10
  %15 = getelementptr i8, ptr %0, i64 96
  %16 = getelementptr i8, ptr %0, i64 112
  %17 = getelementptr i8, ptr %0, i64 128
  %18 = getelementptr i8, ptr %0, i64 188
  %19 = getelementptr inbounds nuw i8, ptr %0, i64 184
  %20 = getelementptr i8, ptr %0, i64 192
  br label %21

21:                                               ; preds = %.lr.ph, %97
  %indvars.iv = phi i64 [ 1, %.lr.ph ], [ %indvars.iv.next, %97 ]
  %.val54 = load ptr, ptr %15, align 8
  %22 = getelementptr inbounds nuw i8, ptr %.val54, i64 %indvars.iv
  %23 = load i8, ptr %22, align 1
  %.not = icmp eq i8 %23, 0
  br i1 %.not, label %97, label %24

24:                                               ; preds = %21
  %25 = add i8 %23, -90
  %narrow.i = icmp ult i8 %25, -86
  br i1 %narrow.i, label %43, label %26

26:                                               ; preds = %24
  %27 = load i32, ptr %7, align 4
  %28 = add nsw i32 %27, 1
  store i32 %28, ptr %7, align 4
  %.val55 = load ptr, ptr %16, align 8
  %29 = getelementptr i32, ptr %.val55, i64 %indvars.iv
  %30 = getelementptr i8, ptr %29, i64 4
  %31 = load i32, ptr %30, align 4
  %32 = load i32, ptr %29, align 4
  %33 = sub i32 %31, %32
  %34 = load i32, ptr %12, align 4
  %35 = add nsw i32 %33, %34
  store i32 %35, ptr %12, align 4
  %.val60 = load ptr, ptr %17, align 8
  %36 = getelementptr i32, ptr %.val60, i64 %indvars.iv
  %37 = getelementptr i8, ptr %36, i64 4
  %38 = load i32, ptr %37, align 4
  %39 = load i32, ptr %36, align 4
  %40 = sub i32 %38, %39
  %41 = load i32, ptr %11, align 4
  %42 = add nsw i32 %40, %41
  br label %.sink.split

43:                                               ; preds = %24
  %.not65 = icmp eq i8 %23, 3
  br i1 %.not65, label %44, label %97

44:                                               ; preds = %43
  %.val5.i = load i32, ptr %18, align 4
  %45 = icmp slt i32 %.val5.i, 1
  br i1 %45, label %Cba_ObjNtk.exit, label %Cba_ObjNtkId.exit

Cba_ObjNtkId.exit:                                ; preds = %44
  %46 = trunc i64 %indvars.iv to i32
  %47 = add i32 %46, 1
  tail call fastcc void @Vec_IntFillExtra(ptr noundef nonnull %19, i32 noundef %47, i32 noundef 0)
  %.val.i.i.i = load ptr, ptr %20, align 8
  %48 = getelementptr inbounds nuw i32, ptr %.val.i.i.i, i64 %indvars.iv
  %49 = load i32, ptr %48, align 4
  %50 = sext i32 %49 to i64
  %.val.i.i.pre = load ptr, ptr %15, align 8
  %.phi.trans.insert = getelementptr inbounds nuw i8, ptr %.val.i.i.pre, i64 %indvars.iv
  %.pre = load i8, ptr %.phi.trans.insert, align 1
  %51 = icmp eq i8 %.pre, 3
  br i1 %51, label %52, label %Cba_ObjNtk.exit

52:                                               ; preds = %Cba_ObjNtkId.exit
  %.val5.i.i.pr = load i32, ptr %18, align 4
  %53 = icmp slt i32 %.val5.i.i.pr, 1
  br i1 %53, label %Cba_ObjNtk.exit, label %Cba_ObjNtkId.exit.i

Cba_ObjNtkId.exit.i:                              ; preds = %52
  %54 = trunc i64 %indvars.iv to i32
  %55 = add i32 %54, 1
  tail call fastcc void @Vec_IntFillExtra(ptr noundef nonnull %19, i32 noundef %55, i32 noundef 0)
  %.val.i.i.i.i = load ptr, ptr %20, align 8
  %56 = getelementptr inbounds nuw i32, ptr %.val.i.i.i.i, i64 %indvars.iv
  %57 = load i32, ptr %56, align 4
  %.val.i63 = load ptr, ptr %0, align 8
  %58 = icmp sgt i32 %57, 0
  br i1 %58, label %Cba_ManNtkIsOk.exit.i.i.i, label %Cba_ObjNtk.exit

Cba_ManNtkIsOk.exit.i.i.i:                        ; preds = %Cba_ObjNtkId.exit.i
  %59 = getelementptr i8, ptr %.val.i63, i64 1564
  %.val.i.i.i2.i = load i32, ptr %59, align 4
  %.not.i.i.i = icmp slt i32 %57, %.val.i.i.i2.i
  br i1 %.not.i.i.i, label %60, label %Cba_ObjNtk.exit

60:                                               ; preds = %Cba_ManNtkIsOk.exit.i.i.i
  %61 = getelementptr i8, ptr %.val.i63, i64 1568
  %.val.i.i.i64 = load ptr, ptr %61, align 8
  %62 = zext nneg i32 %57 to i64
  %63 = getelementptr inbounds nuw ptr, ptr %.val.i.i.i64, i64 %62
  %64 = load ptr, ptr %63, align 8
  br label %Cba_ObjNtk.exit

Cba_ObjNtk.exit:                                  ; preds = %44, %Cba_ObjNtkId.exit, %52, %Cba_ObjNtkId.exit.i, %Cba_ManNtkIsOk.exit.i.i.i, %60
  %65 = phi i64 [ %50, %60 ], [ %50, %Cba_ManNtkIsOk.exit.i.i.i ], [ %50, %Cba_ObjNtkId.exit.i ], [ %50, %52 ], [ %50, %Cba_ObjNtkId.exit ], [ 0, %44 ]
  %66 = phi ptr [ %64, %60 ], [ null, %Cba_ManNtkIsOk.exit.i.i.i ], [ null, %Cba_ObjNtkId.exit.i ], [ null, %52 ], [ null, %Cba_ObjNtkId.exit ], [ null, %44 ]
  tail call void @Cba_ManGetClpStats_rec(ptr noundef %66, ptr noundef %1, ptr noundef %2, ptr noundef %3)
  %67 = getelementptr inbounds i32, ptr %1, i64 %65
  %68 = load i32, ptr %67, align 4
  %.val59 = load ptr, ptr %17, align 8
  %69 = getelementptr i32, ptr %.val59, i64 %indvars.iv
  %70 = getelementptr i8, ptr %69, i64 4
  %71 = load i32, ptr %70, align 4
  %72 = load i32, ptr %69, align 4
  %73 = load i32, ptr %7, align 4
  %74 = add i32 %71, %68
  %75 = sub i32 %74, %72
  %76 = add nsw i32 %75, %73
  store i32 %76, ptr %7, align 4
  %77 = getelementptr inbounds i32, ptr %2, i64 %65
  %78 = load i32, ptr %77, align 4
  %.val58 = load ptr, ptr %17, align 8
  %79 = getelementptr i32, ptr %.val58, i64 %indvars.iv
  %80 = getelementptr i8, ptr %79, i64 4
  %81 = load i32, ptr %80, align 4
  %82 = load i32, ptr %79, align 4
  %83 = load i32, ptr %12, align 4
  %84 = add i32 %81, %78
  %85 = sub i32 %84, %82
  %86 = add nsw i32 %85, %83
  store i32 %86, ptr %12, align 4
  %87 = getelementptr inbounds i32, ptr %3, i64 %65
  %88 = load i32, ptr %87, align 4
  %.val57 = load ptr, ptr %17, align 8
  %89 = getelementptr i32, ptr %.val57, i64 %indvars.iv
  %90 = getelementptr i8, ptr %89, i64 4
  %91 = load i32, ptr %90, align 4
  %92 = load i32, ptr %89, align 4
  %93 = load i32, ptr %11, align 4
  %94 = add i32 %91, %88
  %95 = sub i32 %94, %92
  %96 = add nsw i32 %95, %93
  br label %.sink.split

.sink.split:                                      ; preds = %26, %Cba_ObjNtk.exit
  %.sink = phi i32 [ %96, %Cba_ObjNtk.exit ], [ %42, %26 ]
  store i32 %.sink, ptr %11, align 4
  br label %97

97:                                               ; preds = %.sink.split, %21, %43
  %indvars.iv.next = add nuw nsw i64 %indvars.iv, 1
  %.val = load i32, ptr %13, align 4
  %98 = sext i32 %.val to i64
  %99 = icmp slt i64 %indvars.iv.next, %98
  br i1 %99, label %21, label %.loopexit, !llvm.loop !56

.loopexit:                                        ; preds = %97, %10, %4
  ret void
}